target datalayout = "e-m:e-p270:32:32-p271:32:32-p272:64:64-i64:64-i128:128-f80:128-n8:16:32:64-S128"
target triple = "x86_64-pc-linux-gnu"

%struct.Curl_easy = type { i32, i64, i64, ptr, %struct.Curl_llist_node, %struct.Curl_llist_node, i32, i32, %struct.Curl_message, %struct.easy_pollset, %struct.Names, ptr, ptr, ptr, %struct.SingleRequest, %struct.UserDefined, ptr, ptr, %struct.Progress, %struct.UrlState, ptr, %struct.PureInfo, %struct.curl_tlssessioninfo }
%struct.Curl_llist_node = type { ptr, ptr, ptr, ptr }
%struct.Curl_message = type { %struct.Curl_llist_node, %struct.CURLMsg }
%struct.CURLMsg = type { i32, ptr, %union.anon }
%union.anon = type { ptr }
%struct.easy_pollset = type { [5 x i32], i32, [5 x i8] }
%struct.Names = type { ptr, i32 }
%struct.SingleRequest = type <{ i64, i64, i64, i64, %struct.curltime, i32, i32, i32, i32, i64, i32, i32, i32, i32, ptr, ptr, %struct.bufq, i64, i64, ptr, ptr, %union.anon.0, ptr, i8, i32, [3 x i8] }>
%struct.curltime = type { i64, i32 }
%struct.bufq = type { ptr, ptr, ptr, ptr, i64, i64, i64, i32 }
%union.anon.0 = type { ptr }
%struct.UserDefined = type <{ ptr, ptr, ptr, ptr, ptr, ptr, i16, [6 x i8], i64, i64, i64, ptr, ptr, i64, i16, i16, [4 x i8], ptr, ptr, ptr, ptr, ptr, ptr, ptr, ptr, ptr, ptr, ptr, ptr, ptr, ptr, ptr, ptr, ptr, ptr, ptr, ptr, ptr, ptr, ptr, i32, i32, i32, i32, i32, [4 x i8], i64, i64, i64, i64, i64, i64, i64, i64, ptr, ptr, %struct.curl_mimepart, ptr, ptr, i64, i8, i8, i8, [5 x i8], %struct.ssl_config_data, %struct.ssl_config_data, ptr, i16, i8, i8, [4 x i8], %struct.ssl_general_config, i32, i32, i32, [4 x i8], ptr, ptr, i8, [7 x i8], i64, i8, i8, i8, i8, i32, ptr, ptr, ptr, i8, i8, [2 x i8], i32, [63 x ptr], [8 x ptr], i32, i32, i32, [4 x i8], ptr, ptr, ptr, ptr, ptr, i8, [3 x i8], i32, i32, i32, i64, %struct.Curl_data_priority, ptr, ptr, i64, ptr, i64, ptr, ptr, ptr, i8, [3 x i8], i32, i8, i8, i64, [6 x i8] }>
%struct.curl_mimepart = type { ptr, ptr, i32, i32, ptr, ptr, ptr, ptr, ptr, ptr, ptr, ptr, ptr, ptr, ptr, i64, %struct.mime_state, ptr, %struct.mime_encoder_state, i64 }
%struct.mime_state = type { i32, ptr, i64 }
%struct.mime_encoder_state = type { i64, i64, i64, [256 x i8] }
%struct.ssl_config_data = type { %struct.ssl_primary_config, i64, ptr, ptr, ptr, ptr, ptr, ptr, ptr, i16 }
%struct.ssl_primary_config = type { ptr, ptr, ptr, ptr, ptr, ptr, ptr, ptr, ptr, ptr, ptr, ptr, i8, i32, i8, i8 }
%struct.ssl_general_config = type { i64, i32 }
%struct.Curl_data_priority = type { ptr, ptr, i32, i8 }
%struct.Progress = type { i64, %struct.pgrs_dir, %struct.pgrs_dir, i64, i64, i32, i32, i64, i64, i64, i64, i64, i64, i64, i64, i64, %struct.curltime, %struct.curltime, %struct.curltime, %struct.curltime, [6 x i64], [6 x %struct.curltime], i32, i8 }
%struct.pgrs_dir = type { i64, i64, i64, %struct.pgrs_measure }
%struct.pgrs_measure = type { %struct.curltime, i64 }
%struct.UrlState = type { %struct.curltime, i64, i64, %struct.dynbuf, ptr, i64, ptr, i32, i32, i32, ptr, i64, i32, i64, i32, ptr, %struct.digestdata, %struct.digestdata, %struct.auth, %struct.auth, %struct.Curl_async, ptr, %struct.curltime, %struct.Curl_tree, %struct.Curl_llist, [15 x %struct.time_node], ptr, ptr, i64, i64, %struct.Curl_data_priority, ptr, ptr, ptr, %struct.urlpieces, ptr, ptr, ptr, ptr, ptr, i64, %struct.dynbuf, %struct.Curl_llist, [2 x %struct.curl_header], ptr, i32, ptr, ptr, %struct.store_netrc, %struct.dynamically_allocated_data, i8, i8, i8, i8, i32 }
%struct.digestdata = type { ptr, ptr, ptr, ptr, ptr, ptr, i32, i8, i8 }
%struct.auth = type { i64, i64, i64, i8 }
%struct.Curl_async = type { ptr, ptr, ptr, ptr, i32, i32, i8 }
%struct.Curl_tree = type { ptr, ptr, ptr, ptr, %struct.curltime, ptr }
%struct.time_node = type { %struct.Curl_llist_node, %struct.curltime, i32 }
%struct.urlpieces = type { ptr, ptr, ptr, ptr, ptr, ptr, ptr, ptr }
%struct.dynbuf = type { ptr, i64, i64, i64 }
%struct.Curl_llist = type { ptr, ptr, ptr, i64 }
%struct.curl_header = type { ptr, ptr, i64, i64, i32, ptr }
%struct.store_netrc = type { %struct.dynbuf, ptr, i8 }
%struct.dynamically_allocated_data = type { ptr, ptr, ptr, ptr, ptr, ptr, ptr, ptr, ptr, ptr, ptr, ptr, ptr }
%struct.PureInfo = type { i32, i32, i32, i64, i64, i64, i64, i64, ptr, ptr, i64, i32, %struct.ip_quadruple, i32, ptr, i32, %struct.curl_certinfo, i32, i8 }
%struct.ip_quadruple = type { [46 x i8], [46 x i8], i32, i32 }
%struct.curl_certinfo = type { i32, ptr }
%struct.curl_tlssessioninfo = type { i32, ptr }
%struct.connectdata = type { %struct.Curl_llist_node, ptr, ptr, i64, ptr, i64, ptr, ptr, %struct.hostname, ptr, ptr, %struct.hostname, %struct.proxy_info, %struct.proxy_info, %struct.ip_quadruple, %struct.ip_quadruple, ptr, ptr, ptr, ptr, ptr, %struct.curltime, %struct.curltime, %struct.curltime, [2 x i32], [2 x ptr], [2 x ptr], [2 x ptr], %struct.anon, %struct.easy_pollset, %struct.ssl_primary_config, %struct.ssl_primary_config, %struct.ConnectBits, ptr, ptr, %struct.curltime, i32, i32, %struct.Curl_llist, i32, i32, %struct.ntlmdata, %struct.ntlmdata, %union.anon.1, ptr, i16, i32, i32, i32, i32, i16, i16, i8, i8, i8, i8, i8, i8, i8 }
%struct.hostname = type { ptr, ptr, ptr, ptr }
%struct.proxy_info = type { %struct.hostname, i32, i8, ptr, ptr }
%struct.anon = type { [2 x %struct.curltime], i32 }
%struct.ConnectBits = type { i64 }
%struct.ntlmdata = type { i32, [8 x i8], i32, ptr }
%union.anon.1 = type { %struct.ftp_conn }
%struct.ftp_conn = type { %struct.pingpong, ptr, ptr, ptr, ptr, ptr, ptr, ptr, i8, i64, ptr, i64, i32, i32, i32, i32, i32, i16, i8, i8, i8, i8, i8 }
%struct.pingpong = type { i64, i8, ptr, i64, i64, %struct.curltime, i64, %struct.dynbuf, %struct.dynbuf, i64, i64, ptr, ptr }

@Curl_cstrdup = external global ptr, align 8
@.str.9 = private unnamed_addr constant [6 x i8] c"proxy\00", align 1
@.str.10 = private unnamed_addr constant [5 x i8] c"host\00", align 1
@.str.75 = private unnamed_addr constant [52 x i8] c"Failed to resolve %s '%s' with timeout after %ld ms\00", align 1
@.str.76 = private unnamed_addr constant [25 x i8] c"Could not resolve %s: %s\00", align 1

; Function Attrs: nounwind uwtable
define internal i32 @resolve_server(ptr noundef %0, ptr noundef %1, ptr noundef %2) #0 {
  %4 = alloca i32, align 4
  %5 = alloca ptr, align 8
  %6 = alloca ptr, align 8
  %7 = alloca ptr, align 8
  %8 = alloca ptr, align 8
  %9 = alloca i64, align 8
  %10 = alloca ptr, align 8
  %11 = alloca i32, align 4
  %12 = alloca i32, align 4
  %13 = alloca %struct.curltime, align 8
  store ptr %0, ptr %5, align 8, !tbaa !4
  store ptr %1, ptr %6, align 8, !tbaa !181
  store ptr %2, ptr %7, align 8, !tbaa !242
  call void @llvm.lifetime.start.p0(i64 8, ptr %8) #8
  call void @llvm.lifetime.start.p0(i64 8, ptr %9) #8
  %14 = load ptr, ptr %5, align 8, !tbaa !4
  %15 = call i64 @Curl_timeleft(ptr noundef %14, ptr noundef null, i1 noundef zeroext true)
  store i64 %15, ptr %9, align 8, !tbaa !182
  call void @llvm.lifetime.start.p0(i64 8, ptr %10) #8
  store ptr @.str.10, ptr %10, align 8, !tbaa !12
  call void @llvm.lifetime.start.p0(i64 4, ptr %11) #8
  br label %16

16:                                               ; preds = %3
  br label %17

17:                                               ; preds = %16
  br label %18

18:                                               ; preds = %17
  %19 = load ptr, ptr %6, align 8, !tbaa !181
  %20 = getelementptr inbounds nuw %struct.connectdata, ptr %19, i32 0, i32 32
  %21 = load i64, ptr %20, align 8
  %22 = lshr i64 %21, 4
  %23 = and i64 %22, 1
  %24 = trunc i64 %23 to i32
  %25 = icmp ne i32 %24, 0
  br i1 %25, label %26, label %44

26:                                               ; preds = %18
  %27 = load ptr, ptr %6, align 8, !tbaa !181
  %28 = getelementptr inbounds nuw %struct.connectdata, ptr %27, i32 0, i32 32
  %29 = load i64, ptr %28, align 8
  %30 = lshr i64 %29, 1
  %31 = and i64 %30, 1
  %32 = trunc i64 %31 to i32
  %33 = icmp ne i32 %32, 0
  br i1 %33, label %34, label %38

34:                                               ; preds = %26
  %35 = load ptr, ptr %6, align 8, !tbaa !181
  %36 = getelementptr inbounds nuw %struct.connectdata, ptr %35, i32 0, i32 12
  %37 = getelementptr inbounds nuw %struct.proxy_info, ptr %36, i32 0, i32 0
  br label %42

38:                                               ; preds = %26
  %39 = load ptr, ptr %6, align 8, !tbaa !181
  %40 = getelementptr inbounds nuw %struct.connectdata, ptr %39, i32 0, i32 13
  %41 = getelementptr inbounds nuw %struct.proxy_info, ptr %40, i32 0, i32 0
  br label %42

42:                                               ; preds = %38, %34
  %43 = phi ptr [ %37, %34 ], [ %41, %38 ]
  store ptr %43, ptr %8, align 8, !tbaa !324
  store ptr @.str.9, ptr %10, align 8, !tbaa !12
  br label %80

44:                                               ; preds = %18
  %45 = load ptr, ptr %6, align 8, !tbaa !181
  %46 = getelementptr inbounds nuw %struct.connectdata, ptr %45, i32 0, i32 32
  %47 = load i64, ptr %46, align 8
  %48 = lshr i64 %47, 8
  %49 = and i64 %48, 1
  %50 = trunc i64 %49 to i32
  %51 = icmp ne i32 %50, 0
  br i1 %51, label %52, label %55

52:                                               ; preds = %44
  %53 = load ptr, ptr %6, align 8, !tbaa !181
  %54 = getelementptr inbounds nuw %struct.connectdata, ptr %53, i32 0, i32 11
  br label %58

55:                                               ; preds = %44
  %56 = load ptr, ptr %6, align 8, !tbaa !181
  %57 = getelementptr inbounds nuw %struct.connectdata, ptr %56, i32 0, i32 8
  br label %58

58:                                               ; preds = %55, %52
  %59 = phi ptr [ %54, %52 ], [ %57, %55 ]
  store ptr %59, ptr %8, align 8, !tbaa !324
  %60 = load ptr, ptr %6, align 8, !tbaa !181
  %61 = getelementptr inbounds nuw %struct.connectdata, ptr %60, i32 0, i32 32
  %62 = load i64, ptr %61, align 8
  %63 = lshr i64 %62, 9
  %64 = and i64 %63, 1
  %65 = trunc i64 %64 to i32
  %66 = icmp ne i32 %65, 0
  br i1 %66, label %67, label %71

67:                                               ; preds = %58
  %68 = load ptr, ptr %6, align 8, !tbaa !181
  %69 = getelementptr inbounds nuw %struct.connectdata, ptr %68, i32 0, i32 48
  %70 = load i32, ptr %69, align 4, !tbaa !252
  br label %75

71:                                               ; preds = %58
  %72 = load ptr, ptr %6, align 8, !tbaa !181
  %73 = getelementptr inbounds nuw %struct.connectdata, ptr %72, i32 0, i32 47
  %74 = load i32, ptr %73, align 8, !tbaa !253
  br label %75

75:                                               ; preds = %71, %67
  %76 = phi i32 [ %70, %67 ], [ %74, %71 ]
  %77 = load ptr, ptr %6, align 8, !tbaa !181
  %78 = getelementptr inbounds nuw %struct.connectdata, ptr %77, i32 0, i32 14
  %79 = getelementptr inbounds nuw %struct.ip_quadruple, ptr %78, i32 0, i32 2
  store i32 %76, ptr %79, align 4, !tbaa !233
  br label %80

80:                                               ; preds = %75, %42
  %81 = load ptr, ptr @Curl_cstrdup, align 8, !tbaa !11
  %82 = load ptr, ptr %8, align 8, !tbaa !324
  %83 = getelementptr inbounds nuw %struct.hostname, ptr %82, i32 0, i32 2
  %84 = load ptr, ptr %83, align 8, !tbaa !326
  %85 = call ptr %81(ptr noundef %84)
  %86 = load ptr, ptr %6, align 8, !tbaa !181
  %87 = getelementptr inbounds nuw %struct.connectdata, ptr %86, i32 0, i32 9
  store ptr %85, ptr %87, align 8, !tbaa !205
  %88 = load ptr, ptr %6, align 8, !tbaa !181
  %89 = getelementptr inbounds nuw %struct.connectdata, ptr %88, i32 0, i32 9
  %90 = load ptr, ptr %89, align 8, !tbaa !205
  %91 = icmp ne ptr %90, null
  br i1 %91, label %93, label %92

92:                                               ; preds = %80
  store i32 27, ptr %4, align 4
  store i32 1, ptr %12, align 4
  br label %150

93:                                               ; preds = %80
  %94 = load ptr, ptr %5, align 8, !tbaa !4
  %95 = load ptr, ptr %6, align 8, !tbaa !181
  %96 = getelementptr inbounds nuw %struct.connectdata, ptr %95, i32 0, i32 9
  %97 = load ptr, ptr %96, align 8, !tbaa !205
  %98 = load ptr, ptr %6, align 8, !tbaa !181
  %99 = getelementptr inbounds nuw %struct.connectdata, ptr %98, i32 0, i32 14
  %100 = getelementptr inbounds nuw %struct.ip_quadruple, ptr %99, i32 0, i32 2
  %101 = load i32, ptr %100, align 4, !tbaa !233
  %102 = load ptr, ptr %6, align 8, !tbaa !181
  %103 = getelementptr inbounds nuw %struct.connectdata, ptr %102, i32 0, i32 6
  %104 = load i64, ptr %9, align 8, !tbaa !182
  %105 = call i32 @Curl_resolv_timeout(ptr noundef %94, ptr noundef %97, i32 noundef %101, ptr noundef %103, i64 noundef %104)
  store i32 %105, ptr %11, align 4, !tbaa !9
  %106 = load i32, ptr %11, align 4, !tbaa !9
  %107 = icmp eq i32 %106, 1
  br i1 %107, label %108, label %110

108:                                              ; preds = %93
  %109 = load ptr, ptr %7, align 8, !tbaa !242
  store i8 1, ptr %109, align 1, !tbaa !209
  br label %149

110:                                              ; preds = %93
  %111 = load i32, ptr %11, align 4, !tbaa !9
  %112 = icmp eq i32 %111, -2
  br i1 %112, label %113, label %136

113:                                              ; preds = %110
  %114 = load ptr, ptr %5, align 8, !tbaa !4
  %115 = load ptr, ptr %10, align 8, !tbaa !12
  %116 = load ptr, ptr %8, align 8, !tbaa !324
  %117 = getelementptr inbounds nuw %struct.hostname, ptr %116, i32 0, i32 3
  %118 = load ptr, ptr %117, align 8, !tbaa !327
  %119 = call { i64, i32 } @Curl_now()
  %120 = getelementptr inbounds nuw { i64, i32 }, ptr %13, i32 0, i32 0
  %121 = extractvalue { i64, i32 } %119, 0
  store i64 %121, ptr %120, align 8
  %122 = getelementptr inbounds nuw { i64, i32 }, ptr %13, i32 0, i32 1
  %123 = extractvalue { i64, i32 } %119, 1
  store i32 %123, ptr %122, align 8
  %124 = load ptr, ptr %5, align 8, !tbaa !4
  %125 = getelementptr inbounds nuw %struct.Curl_easy, ptr %124, i32 0, i32 18
  %126 = getelementptr inbounds nuw %struct.Progress, ptr %125, i32 0, i32 17
  %127 = getelementptr inbounds nuw { i64, i32 }, ptr %13, i32 0, i32 0
  %128 = load i64, ptr %127, align 8
  %129 = getelementptr inbounds nuw { i64, i32 }, ptr %13, i32 0, i32 1
  %130 = load i32, ptr %129, align 8
  %131 = getelementptr inbounds nuw { i64, i32 }, ptr %126, i32 0, i32 0
  %132 = load i64, ptr %131, align 8
  %133 = getelementptr inbounds nuw { i64, i32 }, ptr %126, i32 0, i32 1
  %134 = load i32, ptr %133, align 8
  %135 = call i64 @Curl_timediff(i64 %128, i32 %130, i64 %132, i32 %134)
  call void (ptr, ptr, ...) @Curl_failf(ptr noundef %114, ptr noundef @.str.75, ptr noundef %115, ptr noundef %118, i64 noundef %135)
  store i32 28, ptr %4, align 4
  store i32 1, ptr %12, align 4
  br label %150

136:                                              ; preds = %110
  %137 = load ptr, ptr %6, align 8, !tbaa !181
  %138 = getelementptr inbounds nuw %struct.connectdata, ptr %137, i32 0, i32 6
  %139 = load ptr, ptr %138, align 8, !tbaa !211
  %140 = icmp ne ptr %139, null
  br i1 %140, label %147, label %141

141:                                              ; preds = %136
  %142 = load ptr, ptr %5, align 8, !tbaa !4
  %143 = load ptr, ptr %10, align 8, !tbaa !12
  %144 = load ptr, ptr %8, align 8, !tbaa !324
  %145 = getelementptr inbounds nuw %struct.hostname, ptr %144, i32 0, i32 3
  %146 = load ptr, ptr %145, align 8, !tbaa !327
  call void (ptr, ptr, ...) @Curl_failf(ptr noundef %142, ptr noundef @.str.76, ptr noundef %143, ptr noundef %146)
  store i32 6, ptr %4, align 4
  store i32 1, ptr %12, align 4
  br label %150

147:                                              ; preds = %136
  br label %148

148:                                              ; preds = %147
  br label %149

149:                                              ; preds = %148, %108
  store i32 0, ptr %4, align 4
  store i32 1, ptr %12, align 4
  br label %150

150:                                              ; preds = %149, %141, %113, %92
  call void @llvm.lifetime.end.p0(i64 4, ptr %11) #8
  call void @llvm.lifetime.end.p0(i64 8, ptr %10) #8
  call void @llvm.lifetime.end.p0(i64 8, ptr %9) #8
  call void @llvm.lifetime.end.p0(i64 8, ptr %8) #8
  %151 = load i32, ptr %4, align 4
  ret i32 %151
}