; Function Attrs: nounwind uwtable
define internal fastcc range(i32 0, 29) i32 @resolve_server(ptr noundef %0, ptr noundef %1, ptr noundef writeonly captures(none) %2) unnamed_addr #0 {
  %4 = tail call i64 @Curl_timeleft(ptr noundef %0, ptr noundef null, i1 noundef zeroext true) #12
  %5 = getelementptr inbounds nuw i8, ptr %1, i64 920
  %6 = load i64, ptr %5, align 8
  %7 = and i64 %6, 16
  %.not = icmp eq i64 %7, 0
  br i1 %.not, label %10, label %8

8:                                                ; preds = %3
  %9 = and i64 %6, 2
  %.not37 = icmp eq i64 %9, 0
  %.v38 = select i1 %.not37, i64 224, i64 168
  br label %15

10:                                               ; preds = %3
  %11 = and i64 %6, 256
  %.not35 = icmp eq i64 %11, 0
  %.v = select i1 %.not35, i64 88, i64 136
  %12 = and i64 %6, 512
  %.not36 = icmp eq i64 %12, 0
  %.in.v = select i1 %.not36, i64 1352, i64 1356
  %.in = getelementptr inbounds nuw i8, ptr %1, i64 %.in.v
  %13 = load i32, ptr %.in, align 4, !tbaa !214
  %14 = getelementptr inbounds nuw i8, ptr %1, i64 372
  store i32 %13, ptr %14, align 4, !tbaa !216
  br label %15

15:                                               ; preds = %10, %8
  %.032 = phi ptr [ @.str.9, %8 ], [ @.str.10, %10 ]
  %.v38.pn = phi i64 [ %.v38, %8 ], [ %.v, %10 ]
  %.031 = getelementptr inbounds nuw i8, ptr %1, i64 %.v38.pn
  %16 = load ptr, ptr @Curl_cstrdup, align 8, !tbaa !4
  %17 = getelementptr inbounds nuw i8, ptr %.031, i64 16
  %18 = load ptr, ptr %17, align 8, !tbaa !295
  %19 = tail call ptr %16(ptr noundef %18) #12
  %20 = getelementptr inbounds nuw i8, ptr %1, i64 120
  store ptr %19, ptr %20, align 8, !tbaa !192
  %.not39 = icmp eq ptr %19, null
  br i1 %.not39, label %43, label %21

21:                                               ; preds = %15
  %22 = getelementptr inbounds nuw i8, ptr %1, i64 372
  %23 = load i32, ptr %22, align 4, !tbaa !216
  %24 = getelementptr inbounds nuw i8, ptr %1, i64 72
  %25 = tail call i32 @Curl_resolv_timeout(ptr noundef %0, ptr noundef nonnull %19, i32 noundef %23, ptr noundef nonnull %24, i64 noundef %4) #12
  switch i32 %25, label %38 [
    i32 1, label %26
    i32 -2, label %27
  ]

26:                                               ; preds = %21
  store i8 1, ptr %2, align 1, !tbaa !206
  br label %43

27:                                               ; preds = %21
  %28 = getelementptr inbounds nuw i8, ptr %.031, i64 24
  %29 = load ptr, ptr %28, align 8, !tbaa !296
  %30 = tail call { i64, i32 } @Curl_now() #12
  %31 = extractvalue { i64, i32 } %30, 0
  %32 = extractvalue { i64, i32 } %30, 1
  %33 = getelementptr inbounds nuw i8, ptr %0, i64 2808
  %34 = load i64, ptr %33, align 8
  %35 = getelementptr inbounds nuw i8, ptr %0, i64 2816
  %36 = load i32, ptr %35, align 8
  %37 = tail call i64 @Curl_timediff(i64 %31, i32 %32, i64 %34, i32 %36) #12
  tail call void (ptr, ptr, ...) @Curl_failf(ptr noundef %0, ptr noundef nonnull @.str.75, ptr noundef nonnull %.032, ptr noundef %29, i64 noundef %37) #12
  br label %43

38:                                               ; preds = %21
  %39 = load ptr, ptr %24, align 8, !tbaa !196
  %.not40 = icmp eq ptr %39, null
  br i1 %.not40, label %40, label %43

40:                                               ; preds = %38
  %41 = getelementptr inbounds nuw i8, ptr %.031, i64 24
  %42 = load ptr, ptr %41, align 8, !tbaa !296
  tail call void (ptr, ptr, ...) @Curl_failf(ptr noundef %0, ptr noundef nonnull @.str.76, ptr noundef nonnull %.032, ptr noundef %42) #12
  br label %43

43:                                               ; preds = %26, %38, %15, %40, %27
  %.0 = phi i32 [ 28, %27 ], [ 6, %40 ], [ 27, %15 ], [ 0, %38 ], [ 0, %26 ]
  ret i32 %.0
}